00000000  83EC0C            sub esp,byte +0xc
00000003  8B442410          mov eax,[esp+0x10]
00000007  03442414          add eax,[esp+0x14]
0000000B  7004              jo 0x11
0000000D  83C40C            add esp,byte +0xc
00000010  C3                ret
00000011  C744240400000000  mov dword [esp+0x4],0x0
00000019  B925000000        mov ecx,0x25
0000001E  BA10000000        mov edx,0x10
00000023  E8FCFFFFFF        call 0x24
00000028  90                nop
00000029  90                nop
0000002A  90                nop
0000002B  90                nop
0000002C  90                nop
0000002D  90                nop
0000002E  90                nop
0000002F  90                nop
00000030  55                push ebp
00000031  53                push ebx
00000032  57                push edi
00000033  56                push esi
00000034  81EC8C000000      sub esp,0x8c
0000003A  89D5              mov ebp,edx
0000003C  894C2408          mov [esp+0x8],ecx
00000040  8D54240C          lea edx,[esp+0xc]
00000044  B8AAAAAAAA        mov eax,0xaaaaaaaa
00000049  B920000000        mov ecx,0x20
0000004E  89D7              mov edi,edx
00000050  F3AB              rep stosd
00000052  B8AF000000        mov eax,0xaf
00000057  31DB              xor ebx,ebx
00000059  B9F0050000        mov ecx,0x5f0
0000005E  BE08000000        mov esi,0x8
00000063  CD80              int 0x80
00000065  31C9              xor ecx,ecx
00000067  3D01F0FFFF        cmp eax,0xfffff001
0000006C  7204              jc 0x72
0000006E  F7D8              neg eax
00000070  89C1              mov ecx,eax
00000072  6685C9            test cx,cx
00000075  756F              jnz 0xe6
00000077  B8E0000000        mov eax,0xe0
0000007C  CD80              int 0x80
0000007E  89C3              mov ebx,eax
00000080  89E8              mov eax,ebp
00000082  0FB6C8            movzx ecx,al
00000085  B8EE000000        mov eax,0xee
0000008A  CD80              int 0x80
0000008C  89C7              mov edi,eax
0000008E  8D4C240C          lea ecx,[esp+0xc]
00000092  31ED              xor ebp,ebp
00000094  B8AF000000        mov eax,0xaf
00000099  BB02000000        mov ebx,0x2
0000009E  31D2              xor edx,edx
000000A0  CD80              int 0x80
000000A2  3D01F0FFFF        cmp eax,0xfffff001
000000A7  7204              jc 0xad
000000A9  F7D8              neg eax
000000AB  89C5              mov ebp,eax
000000AD  6685ED            test bp,bp
000000B0  7539              jnz 0xeb
000000B2  31C0              xor eax,eax
000000B4  81FF01F0FFFF      cmp edi,0xfffff001
000000BA  7207              jc 0xc3
000000BC  0FB7CF            movzx ecx,di
000000BF  85C9              test ecx,ecx
000000C1  750B              jnz 0xce
000000C3  81C48C000000      add esp,0x8c
000000C9  5E                pop esi
000000CA  5F                pop edi
000000CB  5B                pop ebx
000000CC  5D                pop ebp
000000CD  C3                ret
000000CE  8B742408          mov esi,[esp+0x8]
000000D2  89F1              mov ecx,esi
000000D4  E89C0C0000        call 0xd75
000000D9  89F1              mov ecx,esi
000000DB  E89C0C0000        call 0xd7c
000000E0  66B80F00          mov ax,0xf
000000E4  EBDD              jmp short 0xc3
000000E6  0FB7C1            movzx eax,cx
000000E9  EB03              jmp short 0xee
000000EB  0FB7C5            movzx eax,bp
000000EE  83F80E            cmp eax,byte +0xe
000000F1  7403              jz 0xf6
000000F3  83F816            cmp eax,byte +0x16
000000F6  C744240400000000  mov dword [esp+0x4],0x0
000000FE  B9E1000000        mov ecx,0xe1
00000103  BA18000000        mov edx,0x18
00000108  E8FCFFFFFF        call 0x109
0000010D  90                nop
0000010E  90                nop
0000010F  90                nop
00000110  53                push ebx
00000111  57                push edi
00000112  56                push esi
00000113  83EC20            sub esp,byte +0x20
00000116  89D0              mov eax,edx
00000118  243F              and al,0x3f
0000011A  3C09              cmp al,0x9
0000011C  0F84E3000000      jz near 0x205
00000122  89CF              mov edi,ecx
00000124  8B4C2430          mov ecx,[esp+0x30]
00000128  C7442418AAAAAAAA  mov dword [esp+0x18],0xaaaaaaaa
00000130  C7442414AAAAAAAA  mov dword [esp+0x14],0xaaaaaaaa
00000138  C7442410AAAAAAAA  mov dword [esp+0x10],0xaaaaaaaa
00000140  C744240CAAAAAAAA  mov dword [esp+0xc],0xaaaaaaaa
00000148  C7442408AAAAAAAA  mov dword [esp+0x8],0xaaaaaaaa
00000150  85C9              test ecx,ecx
00000152  744E              jz 0x1a2
00000154  8B31              mov esi,[ecx]
00000156  8B8184000000      mov eax,[ecx+0x84]
0000015C  BB100E0000        mov ebx,0xe10
00000161  A804              test al,0x4
00000163  7405              jz 0x16a
00000165  BB000E0000        mov ebx,0xe00
0000016A  89742408          mov [esp+0x8],esi
0000016E  0D00000004        or eax,0x4000000
00000173  8944240C          mov [esp+0xc],eax
00000177  8D742414          lea esi,[esp+0x14]
0000017B  895C2410          mov [esp+0x10],ebx
0000017F  8D4104            lea eax,[ecx+0x4]
00000182  8D590C            lea ebx,[ecx+0xc]
00000185  39DE              cmp esi,ebx
00000187  730C              jnc 0x195
00000189  8D74241C          lea esi,[esp+0x1c]
0000018D  39F0              cmp eax,esi
0000018F  0F8287000000      jc near 0x21c
00000195  8B30              mov esi,[eax]
00000197  8B4004            mov eax,[eax+0x4]
0000019A  89442418          mov [esp+0x18],eax
0000019E  89742414          mov [esp+0x14],esi
000001A2  85C9              test ecx,ecx
000001A4  7404              jz 0x1aa
000001A6  8D4C2408          lea ecx,[esp+0x8]
000001AA  0FB6DA            movzx ebx,dl
000001AD  83E33F            and ebx,byte +0x3f
000001B0  B8AE000000        mov eax,0xae
000001B5  31D2              xor edx,edx
000001B7  BE08000000        mov esi,0x8
000001BC  CD80              int 0x80
000001BE  89C1              mov ecx,eax
000001C0  6685C9            test cx,cx
000001C3  750C              jnz 0x1d1
000001C5  31C0              xor eax,eax
000001C7  81F901F0FFFF      cmp ecx,0xfffff001
000001CD  720E              jc 0x1dd
000001CF  EB0E              jmp short 0x1df
000001D1  89C8              mov eax,ecx
000001D3  F7D8              neg eax
000001D5  81F901F0FFFF      cmp ecx,0xfffff001
000001DB  7302              jnc 0x1df
000001DD  31C0              xor eax,eax
000001DF  6685C0            test ax,ax
000001E2  7507              jnz 0x1eb
000001E4  83C420            add esp,byte +0x20
000001E7  5E                pop esi
000001E8  5F                pop edi
000001E9  5B                pop ebx
000001EA  C3                ret
000001EB  0FB7C0            movzx eax,ax
000001EE  83F816            cmp eax,byte +0x16
000001F1  7405              jz 0x1f8
000001F3  83F826            cmp eax,byte +0x26
000001F6  750D              jnz 0x205
000001F8  89F9              mov ecx,edi
000001FA  E89C0C0000        call 0xe9b
000001FF  66B81000          mov ax,0x10
00000203  EBDF              jmp short 0x1e4
00000205  C744240400000000  mov dword [esp+0x4],0x0
0000020D  B9E1000000        mov ecx,0xe1
00000212  BA18000000        mov edx,0x18
00000217  E8FCFFFFFF        call 0x218
0000021C  C744240400000000  mov dword [esp+0x4],0x0
00000224  B97A000000        mov ecx,0x7a
00000229  BA17000000        mov edx,0x17
0000022E  E8FCFFFFFF        call 0x22f
00000233  90                nop
00000234  90                nop
00000235  90                nop
00000236  90                nop
00000237  90                nop
00000238  90                nop
00000239  90                nop
0000023A  90                nop
0000023B  90                nop
0000023C  90                nop
0000023D  90                nop
0000023E  90                nop
0000023F  90                nop
00000240  83EC0C            sub esp,byte +0xc
00000243  E8480A0000        call 0xc90
00000248  90                nop
00000249  90                nop
0000024A  90                nop
0000024B  90                nop
0000024C  90                nop
0000024D  90                nop
0000024E  90                nop
0000024F  90                nop
00000250  55                push ebp
00000251  53                push ebx
00000252  57                push edi
00000253  56                push esi
00000254  83EC0C            sub esp,byte +0xc
00000257  89542408          mov [esp+0x8],edx
0000025B  89CD              mov ebp,ecx
0000025D  8B4C2424          mov ecx,[esp+0x24]
00000261  8B5C2420          mov ebx,[esp+0x20]
00000265  8B542428          mov edx,[esp+0x28]
00000269  8B74242C          mov esi,[esp+0x2c]
0000026D  8B7C2430          mov edi,[esp+0x30]
00000271  B8C0000000        mov eax,0xc0
00000276  FF3504000000      push dword [dword 0x4]
0000027C  55                push ebp
0000027D  8B6C2404          mov ebp,[esp+0x4]
00000281  CD80              int 0x80
00000283  5D                pop ebp
00000284  83C404            add esp,byte +0x4
00000287  3D01F0FFFF        cmp eax,0xfffff001
0000028C  7304              jnc 0x292
0000028E  31D2              xor edx,edx
00000290  EB04              jmp short 0x296
00000292  89C2              mov edx,eax
00000294  F7DA              neg edx
00000296  6683FA4B          cmp dx,byte +0x4b
0000029A  7767              ja 0x303
0000029C  0FB7D2            movzx edx,dx
0000029F  FF249500000000    jmp [edx*4+0x0]
000002A6  85C0              test eax,eax
000002A8  0F84E2000000      jz near 0x390
000002AE  A9FF0F0000        test eax,0xfff
000002B3  0F85EE000000      jnz near 0x3a7
000002B9  894500            mov [ebp+0x0],eax
000002BC  894D04            mov [ebp+0x4],ecx
000002BF  66C745080000      mov word [ebp+0x8],0x0
000002C5  E9A7000000        jmp 0x371
000002CA  8B4C2408          mov ecx,[esp+0x8]
000002CE  E89C0C0000        call 0xf6f
000002D3  C7450807000000    mov dword [ebp+0x8],0x7
000002DA  E984000000        jmp 0x363
000002DF  8B4C2408          mov ecx,[esp+0x8]
000002E3  E89C0C0000        call 0xf84
000002E8  C7450820000000    mov dword [ebp+0x8],0x20
000002EF  EB72              jmp short 0x363
000002F1  8B4C2408          mov ecx,[esp+0x8]
000002F5  E89C0C0000        call 0xf96
000002FA  C7450829000000    mov dword [ebp+0x8],0x29
00000301  EB60              jmp short 0x363
00000303  8B742408          mov esi,[esp+0x8]
00000307  89F1              mov ecx,esi
00000309  E89C0C0000        call 0xfaa
0000030E  89F1              mov ecx,esi
00000310  E89C0C0000        call 0xfb1
00000315  66C745080F00      mov word [ebp+0x8],0xf
0000031B  EB54              jmp short 0x371
0000031D  8B4C2408          mov ecx,[esp+0x8]
00000321  E89C0C0000        call 0xfc2
00000326  C745082E000000    mov dword [ebp+0x8],0x2e
0000032D  EB34              jmp short 0x363
0000032F  8B4C2408          mov ecx,[esp+0x8]
00000333  E89C0C0000        call 0xfd4
00000338  C7450814000000    mov dword [ebp+0x8],0x14
0000033F  EB22              jmp short 0x363
00000341  8B4C2408          mov ecx,[esp+0x8]
00000345  E89C0C0000        call 0xfe6
0000034A  C745082D000000    mov dword [ebp+0x8],0x2d
00000351  EB10              jmp short 0x363
00000353  8B4C2408          mov ecx,[esp+0x8]
00000357  E89C0C0000        call 0xff8
0000035C  C745081F000000    mov dword [ebp+0x8],0x1f
00000363  C7450400000000    mov dword [ebp+0x4],0x0
0000036A  C7450000000000    mov dword [ebp+0x0],0x0
00000371  83C40C            add esp,byte +0xc
00000374  5E                pop esi
00000375  5F                pop edi
00000376  5B                pop ebx
00000377  5D                pop ebp
00000378  C3                ret
00000379  C744240400000000  mov dword [esp+0x4],0x0
00000381  B9E1000000        mov ecx,0xe1
00000386  BA18000000        mov edx,0x18
0000038B  E8FCFFFFFF        call 0x38c
00000390  C744240400000000  mov dword [esp+0x4],0x0
00000398  B9AA000000        mov ecx,0xaa
0000039D  BA1E000000        mov edx,0x1e
000003A2  E8FCFFFFFF        call 0x3a3
000003A7  C744240400000000  mov dword [esp+0x4],0x0
000003AF  B936000000        mov ecx,0x36
000003B4  BA13000000        mov edx,0x13
000003B9  E8FCFFFFFF        call 0x3ba
000003BE  90                nop
000003BF  90                nop
000003C0  55                push ebp
000003C1  53                push ebx
000003C2  57                push edi
000003C3  56                push esi
000003C4  81EC2C010000      sub esp,0x12c
000003CA  89542418          mov [esp+0x18],edx
000003CE  894C2414          mov [esp+0x14],ecx
000003D2  8BB42444010000    mov esi,[esp+0x144]
000003D9  8B842440010000    mov eax,[esp+0x140]
000003E0  89442404          mov [esp+0x4],eax
000003E4  8D44242C          lea eax,[esp+0x2c]
000003E8  890424            mov [esp],eax
000003EB  C744240800010000  mov dword [esp+0x8],0x100
000003F3  E8FCFFFFFF        call 0x3f4
000003F8  85F6              test esi,esi
000003FA  7466              jz 0x462
000003FC  90                nop
000003FD  90                nop
000003FE  90                nop
000003FF  90                nop
00000400  89F7              mov edi,esi
00000402  8974241C          mov [esp+0x1c],esi
00000406  81FE00010000      cmp esi,0x100
0000040C  7205              jc 0x413
0000040E  BF00010000        mov edi,0x100
00000413  8B442418          mov eax,[esp+0x18]
00000417  8B18              mov ebx,[eax]
00000419  31F6              xor esi,esi
0000041B  90                nop
0000041C  90                nop
0000041D  90                nop
0000041E  90                nop
0000041F  90                nop
00000420  89F8              mov eax,edi
00000422  29F0              sub eax,esi
00000424  725F              jc 0x485
00000426  8D0C34            lea ecx,[esp+esi]
00000429  83C12C            add ecx,byte +0x2c
0000042C  89442408          mov [esp+0x8],eax
00000430  894C2404          mov [esp+0x4],ecx
00000434  891C24            mov [esp],ebx
00000437  8D4C2420          lea ecx,[esp+0x20]
0000043B  8B542414          mov edx,[esp+0x14]
0000043F  E87C010000        call 0x5c0
00000444  0FB76C2424        movzx ebp,word [esp+0x24]
00000449  6685ED            test bp,bp
0000044C  7518              jnz 0x466
0000044E  03742420          add esi,[esp+0x20]
00000452  7248              jc 0x49c
00000454  39F7              cmp edi,esi
00000456  75C8              jnz 0x420
00000458  8B74241C          mov esi,[esp+0x1c]
0000045C  29FE              sub esi,edi
0000045E  723C              jc 0x49c
00000460  759E              jnz 0x400
00000462  31ED              xor ebp,ebp
00000464  EB12              jmp short 0x478
00000466  8B742414          mov esi,[esp+0x14]
0000046A  89F1              mov ecx,esi
0000046C  E89C0C0000        call 0x110d
00000471  89F1              mov ecx,esi
00000473  E89C0C0000        call 0x1114
00000478  89E8              mov eax,ebp
0000047A  81C42C010000      add esp,0x12c
00000480  5E                pop esi
00000481  5F                pop edi
00000482  5B                pop ebx
00000483  5D                pop ebp
00000484  C3                ret
00000485  C744240400000000  mov dword [esp+0x4],0x0
0000048D  B900000000        mov ecx,0x0
00000492  BA24000000        mov edx,0x24
00000497  E8FCFFFFFF        call 0x498
0000049C  C744240400000000  mov dword [esp+0x4],0x0
000004A4  B925000000        mov ecx,0x25
000004A9  BA10000000        mov edx,0x10
000004AE  E8FCFFFFFF        call 0x4af
000004B3  90                nop
000004B4  90                nop
000004B5  90                nop
000004B6  90                nop
000004B7  90                nop
000004B8  90                nop
000004B9  90                nop
000004BA  90                nop
000004BB  90                nop
000004BC  90                nop
000004BD  90                nop
000004BE  90                nop
000004BF  90                nop
000004C0  53                push ebx
000004C1  56                push esi
000004C2  81EC94000000      sub esp,0x94
000004C8  8D442414          lea eax,[esp+0x14]
000004CC  8944240C          mov [esp+0xc],eax
000004D0  C744241020000000  mov dword [esp+0x10],0x20
000004D8  C744240800000000  mov dword [esp+0x8],0x0
000004E0  31F6              xor esi,esi
000004E2  81E100F0FFFF      and ecx,0xfffff000
000004E8  743F              jz 0x529
000004EA  B890000000        mov eax,0x90
000004EF  89CB              mov ebx,ecx
000004F1  B900100000        mov ecx,0x1000
000004F6  BA01000000        mov edx,0x1
000004FB  CD80              int 0x80
000004FD  3D01F0FFFF        cmp eax,0xfffff001
00000502  7204              jc 0x508
00000504  F7D8              neg eax
00000506  89C6              mov esi,eax
00000508  B001              mov al,0x1
0000050A  6685F6            test si,si
0000050D  7509              jnz 0x518
0000050F  81C494000000      add esp,0x94
00000515  5E                pop esi
00000516  5B                pop ebx
00000517  C3                ret
00000518  0FB7C6            movzx eax,si
0000051B  83F80C            cmp eax,byte +0xc
0000051E  7514              jnz 0x534
00000520  8D4C2408          lea ecx,[esp+0x8]
00000524  E89C0C0000        call 0x11c5
00000529  31C0              xor eax,eax
0000052B  81C494000000      add esp,0x94
00000531  5E                pop esi
00000532  5B                pop ebx
00000533  C3                ret
00000534  83F816            cmp eax,byte +0x16
00000537  C744240400000000  mov dword [esp+0x4],0x0
0000053F  B9E1000000        mov ecx,0xe1
00000544  BA18000000        mov edx,0x18
00000549  E8FCFFFFFF        call 0x54a
0000054E  90                nop
0000054F  90                nop
00000550  C70200000000      mov dword [edx],0x0
00000556  C7420400000000    mov dword [edx+0x4],0x0
0000055D  897A24            mov [edx+0x24],edi
00000560  897228            mov [edx+0x28],esi
00000563  896A2C            mov [edx+0x2c],ebp
00000566  895A34            mov [edx+0x34],ebx
00000569  895238            mov [edx+0x38],edx
0000056C  894A3C            mov [edx+0x3c],ecx
0000056F  894240            mov [edx+0x40],eax
00000572  8B0C24            mov ecx,[esp]
00000575  894A4C            mov [edx+0x4c],ecx
00000578  8D4C2404          lea ecx,[esp+0x4]
0000057C  894A30            mov [edx+0x30],ecx
0000057F  31C9              xor ecx,ecx
00000581  668CE1            mov cx,fs
00000584  894A18            mov [edx+0x18],ecx
00000587  8D8AEC000000      lea ecx,[edx+0xec]
0000058D  894A60            mov [edx+0x60],ecx
00000590  D931              fnstenv [ecx]
00000592  D921              fldenv [ecx]
00000594  53                push ebx
00000595  56                push esi
00000596  31DB              xor ebx,ebx
00000598  B8BA000000        mov eax,0xba
0000059D  8D4A08            lea ecx,[edx+0x8]
000005A0  CD80              int 0x80
000005A2  85C0              test eax,eax
000005A4  7511              jnz 0x5b7
000005A6  B8AF000000        mov eax,0xaf
000005AB  31C9              xor ecx,ecx
000005AD  8D526C            lea edx,[edx+0x6c]
000005B0  BE08000000        mov esi,0x8
000005B5  CD80              int 0x80
000005B7  5E                pop esi
000005B8  5B                pop ebx
000005B9  C3                ret
000005BA  0F0B              ud2
000005BC  90                nop
000005BD  90                nop
000005BE  90                nop
000005BF  90                nop
000005C0  55                push ebp
000005C1  53                push ebx
000005C2  57                push edi
000005C3  56                push esi
000005C4  83EC0C            sub esp,byte +0xc
000005C7  89D7              mov edi,edx
000005C9  89CE              mov esi,ecx
000005CB  8B542428          mov edx,[esp+0x28]
000005CF  85D2              test edx,edx
000005D1  7452              jz 0x625
000005D3  81FA00F0FF7F      cmp edx,0x7ffff000
000005D9  7205              jc 0x5e0
000005DB  BA00F0FF7F        mov edx,0x7ffff000
000005E0  8B4C2424          mov ecx,[esp+0x24]
000005E4  8B5C2420          mov ebx,[esp+0x20]
000005E8  EB0E              jmp short 0x5f8
000005EA  90                nop
000005EB  90                nop
000005EC  90                nop
000005ED  90                nop
000005EE  90                nop
000005EF  90                nop
000005F0  31ED              xor ebp,ebp
000005F2  6683FD04          cmp bp,byte +0x4
000005F6  7518              jnz 0x610
000005F8  B804000000        mov eax,0x4
000005FD  CD80              int 0x80
000005FF  3D01F0FFFF        cmp eax,0xfffff001
00000604  72EA              jc 0x5f0
00000606  89C5              mov ebp,eax
00000608  F7DD              neg ebp
0000060A  6683FD04          cmp bp,byte +0x4
0000060E  74E8              jz 0x5f8
00000610  0FB7CD            movzx ecx,bp
00000613  83F97A            cmp ecx,byte +0x7a
00000616  774F              ja 0x667
00000618  FF248D30010000    jmp [ecx*4+0x130]
0000061F  66BD0700          mov bp,0x7
00000623  EB4D              jmp short 0x672
00000625  31C0              xor eax,eax
00000627  31ED              xor ebp,ebp
00000629  EB5E              jmp short 0x689
0000062B  66BD0300          mov bp,0x3
0000062F  EB41              jmp short 0x672
00000631  66BD0B00          mov bp,0xb
00000635  EB3B              jmp short 0x672
00000637  66BD0D00          mov bp,0xd
0000063B  EB35              jmp short 0x672
0000063D  66BD0500          mov bp,0x5
00000641  EB2F              jmp short 0x672
00000643  66BD0600          mov bp,0x6
00000647  EB29              jmp short 0x672
00000649  66BD0200          mov bp,0x2
0000064D  EB23              jmp short 0x672
0000064F  66BD0400          mov bp,0x4
00000653  EB1D              jmp short 0x672
00000655  66BD0800          mov bp,0x8
00000659  EB17              jmp short 0x672
0000065B  66BD0E00          mov bp,0xe
0000065F  EB11              jmp short 0x672
00000661  66BD0100          mov bp,0x1
00000665  EB0B              jmp short 0x672
00000667  89F9              mov ecx,edi
00000669  E89C0C0000        call 0x130a
0000066E  66BD0F00          mov bp,0xf
00000672  89F9              mov ecx,edi
00000674  E89C0C0000        call 0x1315
00000679  89F9              mov ecx,edi
0000067B  E89C0C0000        call 0x131c
00000680  89F9              mov ecx,edi
00000682  E89C0C0000        call 0x1323
00000687  31C0              xor eax,eax
00000689  0FB7CD            movzx ecx,bp
0000068C  8906              mov [esi],eax
0000068E  894E04            mov [esi+0x4],ecx
00000691  83C40C            add esp,byte +0xc
00000694  5E                pop esi
00000695  5F                pop edi
00000696  5B                pop ebx
00000697  5D                pop ebp
00000698  C3                ret
00000699  C744240400000000  mov dword [esp+0x4],0x0
000006A1  B9E1000000        mov ecx,0xe1
000006A6  BA18000000        mov edx,0x18
000006AB  E8FCFFFFFF        call 0x6ac
000006B0  55                push ebp
000006B1  53                push ebx
000006B2  57                push edi
000006B3  56                push esi
000006B4  83EC4C            sub esp,byte +0x4c
000006B7  89D7              mov edi,edx
000006B9  89CD              mov ebp,ecx
000006BB  8B4C2468          mov ecx,[esp+0x68]
000006BF  8B442464          mov eax,[esp+0x64]
000006C3  8B742460          mov esi,[esp+0x60]
000006C7  80780C00          cmp byte [eax+0xc],0x0
000006CB  896C2410          mov [esp+0x10],ebp
000006CF  0F84A7020000      jz near 0x97c
000006D5  8B5008            mov edx,[eax+0x8]
000006D8  85F6              test esi,esi
000006DA  89542424          mov [esp+0x24],edx
000006DE  0F84F8020000      jz near 0x9dc
000006E4  8B4500            mov eax,[ebp+0x0]
000006E7  89442414          mov [esp+0x14],eax
000006EB  31C0              xor eax,eax
000006ED  8A2D02000000      mov ch,[dword 0x2]
000006F3  31ED              xor ebp,ebp
000006F5  89EB              mov ebx,ebp
000006F7  83C304            add ebx,byte +0x4
000006FA  7334              jnc 0x730
000006FC  E917050000        jmp 0xc18
00000701  90                nop
00000702  90                nop
00000703  90                nop
00000704  90                nop
00000705  90                nop
00000706  90                nop
00000707  90                nop
00000708  90                nop
00000709  90                nop
0000070A  90                nop
0000070B  90                nop
0000070C  90                nop
0000070D  90                nop
0000070E  90                nop
0000070F  90                nop
00000710  39F5              cmp ebp,esi
00000712  0F83DD010000      jnc near 0x8f5
00000718  89EB              mov ebx,ebp
0000071A  83C304            add ebx,byte +0x4
0000071D  0F82F5040000      jc near 0xc18
00000723  90                nop
00000724  90                nop
00000725  90                nop
00000726  90                nop
00000727  90                nop
00000728  90                nop
00000729  90                nop
0000072A  90                nop
0000072B  90                nop
0000072C  90                nop
0000072D  90                nop
0000072E  90                nop
0000072F  90                nop
00000730  39F3              cmp ebx,esi
00000732  772C              ja 0x760
00000734  8D5504            lea edx,[ebp+0x4]
00000737  39F2              cmp edx,esi
00000739  0F87F0040000      ja near 0xc2f
0000073F  F7042F80808080    test dword [edi+ebp],0x80808080
00000746  7518              jnz 0x760
00000748  83C004            add eax,byte +0x4
0000074B  0F82C7040000      jc near 0xc18
00000751  89DD              mov ebp,ebx
00000753  83C304            add ebx,byte +0x4
00000756  73D8              jnc 0x730
00000758  E9BB040000        jmp 0xc18
0000075D  90                nop
0000075E  90                nop
0000075F  90                nop
00000760  39F5              cmp ebp,esi
00000762  73AC              jnc 0x710
00000764  8A0C2F            mov cl,[edi+ebp]
00000767  88EA              mov dl,ch
00000769  84C9              test cl,cl
0000076B  7943              jns 0x7b0
0000076D  88CE              mov dh,cl
0000076F  80E6E0            and dh,0xe0
00000772  8A1502000000      mov dl,[dword 0x2]
00000778  80FEC0            cmp dh,0xc0
0000077B  7433              jz 0x7b0
0000077D  88CE              mov dh,cl
0000077F  80E6F0            and dh,0xf0
00000782  8A1502000000      mov dl,[dword 0x2]
00000788  80FEE0            cmp dh,0xe0
0000078B  7423              jz 0x7b0
0000078D  88CE              mov dh,cl
0000078F  80E6F8            and dh,0xf8
00000792  8A1502000000      mov dl,[dword 0x2]
00000798  80FEF0            cmp dh,0xf0
0000079B  0F8538010000      jnz near 0x8d9
000007A1  90                nop
000007A2  90                nop
000007A3  90                nop
000007A4  90                nop
000007A5  90                nop
000007A6  90                nop
000007A7  90                nop
000007A8  90                nop
000007A9  90                nop
000007AA  90                nop
000007AB  90                nop
000007AC  90                nop
000007AD  90                nop
000007AE  90                nop
000007AF  90                nop
000007B0  80E207            and dl,0x7
000007B3  0FB6D2            movzx edx,dl
000007B6  89EB              mov ebx,ebp
000007B8  01D3              add ebx,edx
000007BA  0F8258040000      jc near 0xc18
000007C0  39F3              cmp ebx,esi
000007C2  0F871A010000      ja near 0x8e2
000007C8  80FA01            cmp dl,0x1
000007CB  7513              jnz 0x7e0
000007CD  40                inc eax
000007CE  0F8444040000      jz near 0xc18
000007D4  89DD              mov ebp,ebx
000007D6  E935FFFFFF        jmp 0x710
000007DB  90                nop
000007DC  90                nop
000007DD  90                nop
000007DE  90                nop
000007DF  90                nop
000007E0  4A                dec edx
000007E1  83FA03            cmp edx,byte +0x3
000007E4  0F8773040000      ja near 0xc5d
000007EA  FF24951C030000    jmp [edx*4+0x31c]
000007F1  89CA              mov edx,ecx
000007F3  80E2E0            and dl,0xe0
000007F6  80FAC0            cmp dl,0xc0
000007F9  0F855E040000      jnz near 0xc5d
000007FF  0FB6542F01        movzx edx,byte [edi+ebp+0x1]
00000804  80E2C0            and dl,0xc0
00000807  80FA80            cmp dl,0x80
0000080A  0F85C0000000      jnz near 0x8d0
00000810  80E11E            and cl,0x1e
00000813  75B8              jnz 0x7cd
00000815  E9B6000000        jmp 0x8d0
0000081A  89CA              mov edx,ecx
0000081C  80E2F0            and dl,0xf0
0000081F  80FAE0            cmp dl,0xe0
00000822  0F8535040000      jnz near 0xc5d
00000828  0FB6542F01        movzx edx,byte [edi+ebp+0x1]
0000082D  88D6              mov dh,dl
0000082F  80E6C0            and dh,0xc0
00000832  80FE80            cmp dh,0x80
00000835  0F8595000000      jnz near 0x8d0
0000083B  8A742F02          mov dh,[edi+ebp+0x2]
0000083F  80E6C0            and dh,0xc0
00000842  80FE80            cmp dh,0x80
00000845  0F8585000000      jnz near 0x8d0
0000084B  80E10F            and cl,0xf
0000084E  0FB6E9            movzx ebp,cl
00000851  80E23F            and dl,0x3f
00000854  0FB6D2            movzx edx,dl
00000857  C1E50C            shl ebp,byte 0xc
0000085A  C1E206            shl edx,byte 0x6
0000085D  09EA              or edx,ebp
0000085F  81FA00080000      cmp edx,0x800
00000865  7269              jc 0x8d0
00000867  81E200F80000      and edx,0xf800
0000086D  81FA00D80000      cmp edx,0xd800
00000873  0F8554FFFFFF      jnz near 0x7cd
00000879  EB55              jmp short 0x8d0
0000087B  89CA              mov edx,ecx
0000087D  80E2F8            and dl,0xf8
00000880  80FAF0            cmp dl,0xf0
00000883  0F85D4030000      jnz near 0xc5d
00000889  0FB6542F01        movzx edx,byte [edi+ebp+0x1]
0000088E  88D6              mov dh,dl
00000890  80E6C0            and dh,0xc0
00000893  80FE80            cmp dh,0x80
00000896  7538              jnz 0x8d0
00000898  8A742F02          mov dh,[edi+ebp+0x2]
0000089C  80E6C0            and dh,0xc0
0000089F  80FE80            cmp dh,0x80
000008A2  752C              jnz 0x8d0
000008A4  8A742F03          mov dh,[edi+ebp+0x3]
000008A8  80E6C0            and dh,0xc0
000008AB  80FE80            cmp dh,0x80
000008AE  7520              jnz 0x8d0
000008B0  0FB6E9            movzx ebp,cl
000008B3  80E230            and dl,0x30
000008B6  0FB6D2            movzx edx,dl
000008B9  C1E51D            shl ebp,byte 0x1d
000008BC  C1E217            shl edx,byte 0x17
000008BF  01EA              add edx,ebp
000008C1  81C200000078      add edx,0x78000000
000008C7  C1FA0B            sar edx,byte 0xb
000008CA  0F88FDFEFFFF      js near 0x7cd
000008D0  8B4C2410          mov ecx,[esp+0x10]
000008D4  E89C0C0000        call 0x1575
000008D9  8B4C2410          mov ecx,[esp+0x10]
000008DD  E89C0C0000        call 0x157e
000008E2  8B5C2410          mov ebx,[esp+0x10]
000008E6  89D9              mov ecx,ebx
000008E8  E89C0C0000        call 0x1589
000008ED  8B442414          mov eax,[esp+0x14]
000008F1  8903              mov [ebx],eax
000008F3  89F0              mov eax,esi
000008F5  31C9              xor ecx,ecx
000008F7  8B542424          mov edx,[esp+0x24]
000008FB  29C2              sub edx,eax
000008FD  7204              jc 0x903
000008FF  89D0              mov eax,edx
00000901  89D1              mov ecx,edx
00000903  894C2424          mov [esp+0x24],ecx
00000907  8B6C2410          mov ebp,[esp+0x10]
0000090B  8B4C2468          mov ecx,[esp+0x68]
0000090F  8B442464          mov eax,[esp+0x64]
00000913  0F87CB000000      ja near 0x9e4
00000919  8B01              mov eax,[ecx]
0000091B  89442414          mov [esp+0x14],eax
0000091F  31ED              xor ebp,ebp
00000921  90                nop
00000922  90                nop
00000923  90                nop
00000924  90                nop
00000925  90                nop
00000926  90                nop
00000927  90                nop
00000928  90                nop
00000929  90                nop
0000092A  90                nop
0000092B  90                nop
0000092C  90                nop
0000092D  90                nop
0000092E  90                nop
0000092F  90                nop
00000930  39F5              cmp ebp,esi
00000932  0F870E030000      ja near 0xc46
00000938  8D042F            lea eax,[edi+ebp]
0000093B  89F1              mov ecx,esi
0000093D  29E9              sub ecx,ebp
0000093F  894C2408          mov [esp+0x8],ecx
00000943  89442404          mov [esp+0x4],eax
00000947  8B442414          mov eax,[esp+0x14]
0000094B  890424            mov [esp],eax
0000094E  8D4C2418          lea ecx,[esp+0x18]
00000952  8B542410          mov edx,[esp+0x10]
00000956  E865FCFFFF        call 0x5c0
0000095B  0FB75C241C        movzx ebx,word [esp+0x1c]
00000960  6685DB            test bx,bx
00000963  0F8595020000      jnz near 0xbfe
00000969  036C2418          add ebp,[esp+0x18]
0000096D  0F82A5020000      jc near 0xc18
00000973  39F5              cmp ebp,esi
00000975  75B9              jnz 0x930
00000977  E976020000        jmp 0xbf2
0000097C  85F6              test esi,esi
0000097E  0F846E020000      jz near 0xbf2
00000984  8B01              mov eax,[ecx]
00000986  89442414          mov [esp+0x14],eax
0000098A  31ED              xor ebp,ebp
0000098C  90                nop
0000098D  90                nop
0000098E  90                nop
0000098F  90                nop
00000990  39F5              cmp ebp,esi
00000992  0F87AE020000      ja near 0xc46
00000998  8D042F            lea eax,[edi+ebp]
0000099B  89F1              mov ecx,esi
0000099D  29E9              sub ecx,ebp
0000099F  894C2408          mov [esp+0x8],ecx
000009A3  89442404          mov [esp+0x4],eax
000009A7  8B442414          mov eax,[esp+0x14]
000009AB  890424            mov [esp],eax
000009AE  8D4C2418          lea ecx,[esp+0x18]
000009B2  8B542410          mov edx,[esp+0x10]
000009B6  E805FCFFFF        call 0x5c0
000009BB  0FB75C241C        movzx ebx,word [esp+0x1c]
000009C0  6685DB            test bx,bx
000009C3  0F8535020000      jnz near 0xbfe
000009C9  036C2418          add ebp,[esp+0x18]
000009CD  0F8245020000      jc near 0xc18
000009D3  39F5              cmp ebp,esi
000009D5  75B9              jnz 0x990
000009D7  E916020000        jmp 0xbf2
000009DC  85D2              test edx,edx
000009DE  0F840E020000      jz near 0xbf2
000009E4  0FB64010          movzx eax,byte [eax+0x10]
000009E8  85C0              test eax,eax
000009EA  0F84AC000000      jz near 0xa9c
000009F0  83F801            cmp eax,byte +0x1
000009F3  0F8438010000      jz near 0xb31
000009F9  83F802            cmp eax,byte +0x2
000009FC  0F8572020000      jnz near 0xc74
00000A02  8B01              mov eax,[ecx]
00000A04  89442440          mov [esp+0x40],eax
00000A08  8B442464          mov eax,[esp+0x64]
00000A0C  0FB64011          movzx eax,byte [eax+0x11]
00000A10  8B4C2424          mov ecx,[esp+0x24]
00000A14  894C2404          mov [esp+0x4],ecx
00000A18  890424            mov [esp],eax
00000A1B  8D542440          lea edx,[esp+0x40]
00000A1F  89E9              mov ecx,ebp
00000A21  E89AF9FFFF        call 0x3c0
00000A26  6685C0            test ax,ax
00000A29  0F85DE010000      jnz near 0xc0d
00000A2F  85F6              test esi,esi
00000A31  0F84BB010000      jz near 0xbf2
00000A37  8B442468          mov eax,[esp+0x68]
00000A3B  8B00              mov eax,[eax]
00000A3D  89442414          mov [esp+0x14],eax
00000A41  31ED              xor ebp,ebp
00000A43  90                nop
00000A44  90                nop
00000A45  90                nop
00000A46  90                nop
00000A47  90                nop
00000A48  90                nop
00000A49  90                nop
00000A4A  90                nop
00000A4B  90                nop
00000A4C  90                nop
00000A4D  90                nop
00000A4E  90                nop
00000A4F  90                nop
00000A50  39F5              cmp ebp,esi
00000A52  0F87EE010000      ja near 0xc46
00000A58  8D042F            lea eax,[edi+ebp]
00000A5B  89F1              mov ecx,esi
00000A5D  29E9              sub ecx,ebp
00000A5F  894C2408          mov [esp+0x8],ecx
00000A63  89442404          mov [esp+0x4],eax
00000A67  8B442414          mov eax,[esp+0x14]
00000A6B  890424            mov [esp],eax
00000A6E  8D4C2418          lea ecx,[esp+0x18]
00000A72  8B542410          mov edx,[esp+0x10]
00000A76  E845FBFFFF        call 0x5c0
00000A7B  0FB75C241C        movzx ebx,word [esp+0x1c]
00000A80  6685DB            test bx,bx
00000A83  0F8575010000      jnz near 0xbfe
00000A89  036C2418          add ebp,[esp+0x18]
00000A8D  0F8285010000      jc near 0xc18
00000A93  39F5              cmp ebp,esi
00000A95  75B9              jnz 0xa50
00000A97  E956010000        jmp 0xbf2
00000A9C  8B11              mov edx,[ecx]
00000A9E  85F6              test esi,esi
00000AA0  745F              jz 0xb01
00000AA2  31ED              xor ebp,ebp
00000AA4  89542414          mov [esp+0x14],edx
00000AA8  90                nop
00000AA9  90                nop
00000AAA  90                nop
00000AAB  90                nop
00000AAC  90                nop
00000AAD  90                nop
00000AAE  90                nop
00000AAF  90                nop
00000AB0  39F5              cmp ebp,esi
00000AB2  0F878E010000      ja near 0xc46
00000AB8  8D042F            lea eax,[edi+ebp]
00000ABB  89F1              mov ecx,esi
00000ABD  29E9              sub ecx,ebp
00000ABF  894C2408          mov [esp+0x8],ecx
00000AC3  89442404          mov [esp+0x4],eax
00000AC7  891424            mov [esp],edx
00000ACA  8D4C2418          lea ecx,[esp+0x18]
00000ACE  8B542410          mov edx,[esp+0x10]
00000AD2  E8E9FAFFFF        call 0x5c0
00000AD7  0FB75C241C        movzx ebx,word [esp+0x1c]
00000ADC  6685DB            test bx,bx
00000ADF  0F8519010000      jnz near 0xbfe
00000AE5  036C2418          add ebp,[esp+0x18]
00000AE9  8B442468          mov eax,[esp+0x68]
00000AED  0F8225010000      jc near 0xc18
00000AF3  39F5              cmp ebp,esi
00000AF5  8B542414          mov edx,[esp+0x14]
00000AF9  75B5              jnz 0xab0
00000AFB  8B10              mov edx,[eax]
00000AFD  8B6C2410          mov ebp,[esp+0x10]
00000B01  89542428          mov [esp+0x28],edx
00000B05  8B442464          mov eax,[esp+0x64]
00000B09  0FB64011          movzx eax,byte [eax+0x11]
00000B0D  8B4C2424          mov ecx,[esp+0x24]
00000B11  894C2404          mov [esp+0x4],ecx
00000B15  890424            mov [esp],eax
00000B18  8D542428          lea edx,[esp+0x28]
00000B1C  89E9              mov ecx,ebp
00000B1E  E89DF8FFFF        call 0x3c0
00000B23  6685C0            test ax,ax
00000B26  0F84C6000000      jz near 0xbf2
00000B2C  E9DC000000        jmp 0xc0d
00000B31  8B442424          mov eax,[esp+0x24]
00000B35  89C2              mov edx,eax
00000B37  42                inc edx
00000B38  89542448          mov [esp+0x48],edx
00000B3C  0F84D6000000      jz near 0xc18
00000B42  D1E8              shr eax,1
00000B44  89C2              mov edx,eax
00000B46  8B01              mov eax,[ecx]
00000B48  89442430          mov [esp+0x30],eax
00000B4C  8B442464          mov eax,[esp+0x64]
00000B50  0FB64011          movzx eax,byte [eax+0x11]
00000B54  89542404          mov [esp+0x4],edx
00000B58  890424            mov [esp],eax
00000B5B  8D542430          lea edx,[esp+0x30]
00000B5F  89E9              mov ecx,ebp
00000B61  E85AF8FFFF        call 0x3c0
00000B66  6685C0            test ax,ax
00000B69  0F859E000000      jnz near 0xc0d
00000B6F  8B442468          mov eax,[esp+0x68]
00000B73  8B10              mov edx,[eax]
00000B75  85F6              test esi,esi
00000B77  7450              jz 0xbc9
00000B79  31ED              xor ebp,ebp
00000B7B  89542414          mov [esp+0x14],edx
00000B7F  90                nop
00000B80  39F5              cmp ebp,esi
00000B82  0F87BE000000      ja near 0xc46
00000B88  8D042F            lea eax,[edi+ebp]
00000B8B  89F1              mov ecx,esi
00000B8D  29E9              sub ecx,ebp
00000B8F  894C2408          mov [esp+0x8],ecx
00000B93  89442404          mov [esp+0x4],eax
00000B97  891424            mov [esp],edx
00000B9A  8D4C2418          lea ecx,[esp+0x18]
00000B9E  8B542410          mov edx,[esp+0x10]
00000BA2  E819FAFFFF        call 0x5c0
00000BA7  0FB75C241C        movzx ebx,word [esp+0x1c]
00000BAC  6685DB            test bx,bx
00000BAF  754D              jnz 0xbfe
00000BB1  036C2418          add ebp,[esp+0x18]
00000BB5  8B442468          mov eax,[esp+0x68]
00000BB9  725D              jc 0xc18
00000BBB  39F5              cmp ebp,esi
00000BBD  8B542414          mov edx,[esp+0x14]
00000BC1  75BD              jnz 0xb80
00000BC3  8B10              mov edx,[eax]
00000BC5  8B6C2410          mov ebp,[esp+0x10]
00000BC9  8B4C2448          mov ecx,[esp+0x48]
00000BCD  D1E9              shr ecx,1
00000BCF  89542438          mov [esp+0x38],edx
00000BD3  8B442464          mov eax,[esp+0x64]
00000BD7  0FB64011          movzx eax,byte [eax+0x11]
00000BDB  894C2404          mov [esp+0x4],ecx
00000BDF  890424            mov [esp],eax
00000BE2  8D542438          lea edx,[esp+0x38]
00000BE6  89E9              mov ecx,ebp
00000BE8  E8D3F7FFFF        call 0x3c0
00000BED  6685C0            test ax,ax
00000BF0  751B              jnz 0xc0d
00000BF2  31DB              xor ebx,ebx
00000BF4  89D8              mov eax,ebx
00000BF6  83C44C            add esp,byte +0x4c
00000BF9  5E                pop esi
00000BFA  5F                pop edi
00000BFB  5B                pop ebx
00000BFC  5D                pop ebp
00000BFD  C3                ret
00000BFE  8B742410          mov esi,[esp+0x10]
00000C02  89F1              mov ecx,esi
00000C04  E89C0C0000        call 0x18a5
00000C09  89F1              mov ecx,esi
00000C0B  EB04              jmp short 0xc11
00000C0D  89C3              mov ebx,eax
00000C0F  89E9              mov ecx,ebp
00000C11  E89C0C0000        call 0x18b2
00000C16  EBDC              jmp short 0xbf4
00000C18  C744240400000000  mov dword [esp+0x4],0x0
00000C20  B925000000        mov ecx,0x25
00000C25  BA10000000        mov edx,0x10
00000C2A  E8FCFFFFFF        call 0xc2b
00000C2F  C744240400000000  mov dword [esp+0x4],0x0
00000C37  B966000000        mov ecx,0x66
00000C3C  BA13000000        mov edx,0x13
00000C41  E8FCFFFFFF        call 0xc42
00000C46  C744240400000000  mov dword [esp+0x4],0x0
00000C4E  B900000000        mov ecx,0x0
00000C53  BA24000000        mov edx,0x24
00000C58  E8FCFFFFFF        call 0xc59
00000C5D  C744240400000000  mov dword [esp+0x4],0x0
00000C65  B9E1000000        mov ecx,0xe1
00000C6A  BA18000000        mov edx,0x18
00000C6F  E8FCFFFFFF        call 0xc70
00000C74  C744240400000000  mov dword [esp+0x4],0x0
00000C7C  B9C9000000        mov ecx,0xc9
00000C81  BA17000000        mov edx,0x17
00000C86  E8FCFFFFFF        call 0xc87
00000C8B  90                nop
00000C8C  90                nop
00000C8D  90                nop
00000C8E  90                nop
00000C8F  90                nop
00000C90  53                push ebx
00000C91  83EC08            sub esp,byte +0x8
00000C94  B8FC000000        mov eax,0xfc
00000C99  BB7F000000        mov ebx,0x7f
00000C9E  CD80              int 0x80
00000CA0  C744240400000000  mov dword [esp+0x4],0x0
00000CA8  B9E1000000        mov ecx,0xe1
00000CAD  BA18000000        mov edx,0x18
00000CB2  E8FCFFFFFF        call 0xcb3
00000CB7  90                nop
00000CB8  90                nop
00000CB9  90                nop
00000CBA  90                nop
00000CBB  90                nop
00000CBC  90                nop
00000CBD  90                nop
00000CBE  90                nop
00000CBF  90                nop
00000CC0  55                push ebp
00000CC1  53                push ebx
00000CC2  57                push edi
00000CC3  56                push esi
00000CC4  81EC2C010000      sub esp,0x12c
00000CCA  89D7              mov edi,edx
00000CCC  89CE              mov esi,ecx
00000CCE  8D44242C          lea eax,[esp+0x2c]
00000CD2  89442414          mov [esp+0x14],eax
00000CD6  C744241820000000  mov dword [esp+0x18],0x20
00000CDE  C744241000000000  mov dword [esp+0x10],0x0
00000CE6  80BAA400000000    cmp byte [edx+0xa4],0x0
00000CED  7409              jz 0xcf8
00000CEF  80BFA200000000    cmp byte [edi+0xa2],0x0
00000CF6  744F              jz 0xd47
00000CF8  8B4F08            mov ecx,[edi+0x8]
00000CFB  85C9              test ecx,ecx
00000CFD  744E              jz 0xd4d
00000CFF  F6C103            test cl,0x3
00000D02  7549              jnz 0xd4d
00000D04  8D8424AC000000    lea eax,[esp+0xac]
00000D0B  89442424          mov [esp+0x24],eax
00000D0F  C744242820000000  mov dword [esp+0x28],0x20
00000D17  C744242000000000  mov dword [esp+0x20],0x0
00000D1F  89CB              mov ebx,ecx
00000D21  81E300F0FFFF      and ebx,0xfffff000
00000D27  7424              jz 0xd4d
00000D29  89CD              mov ebp,ecx
00000D2B  B890000000        mov eax,0x90
00000D30  B900100000        mov ecx,0x1000
00000D35  BA01000000        mov edx,0x1
00000D3A  CD80              int 0x80
00000D3C  3D01F0FFFF        cmp eax,0xfffff001
00000D41  7322              jnc 0xd65
00000D43  31C0              xor eax,eax
00000D45  EB20              jmp short 0xd67
00000D47  837F2000          cmp dword [edi+0x20],byte +0x0
00000D4B  7566              jnz 0xdb3
00000D4D  C7460400000000    mov dword [esi+0x4],0x0
00000D54  C70600000000      mov dword [esi],0x0
00000D5A  81C42C010000      add esp,0x12c
00000D60  5E                pop esi
00000D61  5F                pop edi
00000D62  5B                pop ebx
00000D63  5D                pop ebp
00000D64  C3                ret
00000D65  F7D8              neg eax
00000D67  6685C0            test ax,ax
00000D6A  7529              jnz 0xd95
00000D6C  89E9              mov ecx,ebp
00000D6E  F6C103            test cl,0x3
00000D71  7571              jnz 0xde4
00000D73  8B01              mov eax,[ecx]
00000D75  85C0              test eax,eax
00000D77  7405              jz 0xd7e
00000D79  3B4708            cmp eax,[edi+0x8]
00000D7C  72CF              jc 0xd4d
00000D7E  83C104            add ecx,byte +0x4
00000D81  7225              jc 0xda8
00000D83  F6C103            test cl,0x3
00000D86  755C              jnz 0xde4
00000D88  8B09              mov ecx,[ecx]
00000D8A  894708            mov [edi+0x8],eax
00000D8D  890E              mov [esi],ecx
00000D8F  C6460401          mov byte [esi+0x4],0x1
00000D93  EBC5              jmp short 0xd5a
00000D95  0FB7C0            movzx eax,ax
00000D98  83F80C            cmp eax,byte +0xc
00000D9B  752D              jnz 0xdca
00000D9D  8D4C2420          lea ecx,[esp+0x20]
00000DA1  E89C0C0000        call 0x1a42
00000DA6  EBA5              jmp short 0xd4d
00000DA8  8D4C2410          lea ecx,[esp+0x10]
00000DAC  E89C0C0000        call 0x1a4d
00000DB1  EB9A              jmp short 0xd4d
00000DB3  C744240400000000  mov dword [esp+0x4],0x0
00000DBB  B925000000        mov ecx,0x25
00000DC0  BA10000000        mov edx,0x10
00000DC5  E8FCFFFFFF        call 0xdc6
00000DCA  83F816            cmp eax,byte +0x16
00000DCD  C744240400000000  mov dword [esp+0x4],0x0
00000DD5  B9E1000000        mov ecx,0xe1
00000DDA  BA18000000        mov edx,0x18
00000DDF  E8FCFFFFFF        call 0xde0
00000DE4  C744240400000000  mov dword [esp+0x4],0x0
00000DEC  B936000000        mov ecx,0x36
00000DF1  BA13000000        mov edx,0x13
00000DF6  E8FCFFFFFF        call 0xdf7
00000DFB  90                nop
00000DFC  90                nop
00000DFD  90                nop
00000DFE  90                nop
00000DFF  90                nop
00000E00  B8AD000000        mov eax,0xad
00000E05  CD80              int 0x80
00000E07  0F0B              ud2
00000E09  90                nop
00000E0A  90                nop
00000E0B  90                nop
00000E0C  90                nop
00000E0D  90                nop
00000E0E  90                nop
00000E0F  90                nop
00000E10  B877000000        mov eax,0x77
00000E15  CD80              int 0x80
00000E17  0F0B              ud2
00000E19  90                nop
00000E1A  90                nop
00000E1B  90                nop
00000E1C  90                nop
00000E1D  90                nop
00000E1E  90                nop
00000E1F  90                nop
00000E20  53                push ebx
00000E21  57                push edi
00000E22  56                push esi
00000E23  81ECC0000000      sub esp,0xc0
00000E29  8D442440          lea eax,[esp+0x40]
00000E2D  89442424          mov [esp+0x24],eax
00000E31  C744242820000000  mov dword [esp+0x28],0x20
00000E39  C744242000000000  mov dword [esp+0x20],0x0
00000E41  85D2              test edx,edx
00000E43  747E              jz 0xec3
00000E45  89D6              mov esi,edx
00000E47  31FF              xor edi,edi
00000E49  81FA01F0FFFF      cmp edx,0xfffff001
00000E4F  7366              jnc 0xeb7
00000E51  81C6FF0F0000      add esi,0xfff
00000E57  81E600F0FFFF      and esi,0xfffff000
00000E5D  8B1D48000000      mov ebx,[dword 0x48]
00000E63  89742404          mov [esp+0x4],esi
00000E67  891C24            mov [esp],ebx
00000E6A  C7442410FFFFFFFF  mov dword [esp+0x10],0xffffffff
00000E72  C744240C22000000  mov dword [esp+0xc],0x22
00000E7A  C744240803000000  mov dword [esp+0x8],0x3
00000E82  8D4C2430          lea ecx,[esp+0x30]
00000E86  8D542420          lea edx,[esp+0x20]
00000E8A  E8C1F3FFFF        call 0x250
00000E8F  66837C243800      cmp word [esp+0x38],byte +0x0
00000E95  7520              jnz 0xeb7
00000E97  8B7C2430          mov edi,[esp+0x30]
00000E9B  F7C7FF0F0000      test edi,0xfff
00000EA1  7520              jnz 0xec3
00000EA3  01FE              add esi,edi
00000EA5  F7C6FF0F0000      test esi,0xfff
00000EAB  752D              jnz 0xeda
00000EAD  89D8              mov eax,ebx
00000EAF  F00FB13548000000  lock cmpxchg [dword 0x48],esi
00000EB7  89F8              mov eax,edi
00000EB9  81C4C0000000      add esp,0xc0
00000EBF  5E                pop esi
00000EC0  5F                pop edi
00000EC1  5B                pop ebx
00000EC2  C3                ret
00000EC3  C744240400000000  mov dword [esp+0x4],0x0
00000ECB  B9E1000000        mov ecx,0xe1
00000ED0  BA18000000        mov edx,0x18
00000ED5  E8FCFFFFFF        call 0xed6
00000EDA  C744240400000000  mov dword [esp+0x4],0x0
00000EE2  B936000000        mov ecx,0x36
00000EE7  BA13000000        mov edx,0x13
00000EEC  E8FCFFFFFF        call 0xeed
00000EF1  90                nop
00000EF2  90                nop
00000EF3  90                nop
00000EF4  90                nop
00000EF5  90                nop
00000EF6  90                nop
00000EF7  90                nop
00000EF8  90                nop
00000EF9  90                nop
00000EFA  90                nop
00000EFB  90                nop
00000EFC  90                nop
00000EFD  90                nop
00000EFE  90                nop
00000EFF  90                nop
00000F00  53                push ebx
00000F01  83EC08            sub esp,byte +0x8
00000F04  B8FF0F0000        mov eax,0xfff
00000F09  03442418          add eax,[esp+0x18]
00000F0D  7251              jc 0xf60
00000F0F  8B4C2410          mov ecx,[esp+0x10]
00000F13  81C1FF0F0000      add ecx,0xfff
00000F19  7245              jc 0xf60
00000F1B  89D3              mov ebx,edx
00000F1D  2500F0FFFF        and eax,0xfffff000
00000F22  81E100F0FFFF      and ecx,0xfffff000
00000F28  B201              mov dl,0x1
00000F2A  39C1              cmp ecx,eax
00000F2C  742B              jz 0xf59
00000F2E  29C1              sub ecx,eax
00000F30  761C              jna 0xf4e
00000F32  01C3              add ebx,eax
00000F34  F7C3FF0F0000      test ebx,0xfff
00000F3A  755D              jnz 0xf99
00000F3C  B85B000000        mov eax,0x5b
00000F41  CD80              int 0x80
00000F43  3D01F0FFFF        cmp eax,0xfffff001
00000F48  7308              jnc 0xf52
00000F4A  31C0              xor eax,eax
00000F4C  EB06              jmp short 0xf54
00000F4E  31D2              xor edx,edx
00000F50  EB07              jmp short 0xf59
00000F52  F7D8              neg eax
00000F54  6685C0            test ax,ax
00000F57  751E              jnz 0xf77
00000F59  89D0              mov eax,edx
00000F5B  83C408            add esp,byte +0x8
00000F5E  5B                pop ebx
00000F5F  C3                ret
00000F60  C744240400000000  mov dword [esp+0x4],0x0
00000F68  B925000000        mov ecx,0x25
00000F6D  BA10000000        mov edx,0x10
00000F72  E8FCFFFFFF        call 0xf73
00000F77  0FB7C0            movzx eax,ax
00000F7A  83F80C            cmp eax,byte +0xc
00000F7D  7403              jz 0xf82
00000F7F  83F816            cmp eax,byte +0x16
00000F82  C744240400000000  mov dword [esp+0x4],0x0
00000F8A  B9E1000000        mov ecx,0xe1
00000F8F  BA18000000        mov edx,0x18
00000F94  E8FCFFFFFF        call 0xf95
00000F99  C744240400000000  mov dword [esp+0x4],0x0
00000FA1  B936000000        mov ecx,0x36
00000FA6  BA13000000        mov edx,0x13
00000FAB  E8FCFFFFFF        call 0xfac
00000FB0  53                push ebx
00000FB1  83EC08            sub esp,byte +0x8
00000FB4  B9FF0F0000        mov ecx,0xfff
00000FB9  034C2410          add ecx,[esp+0x10]
00000FBD  7254              jc 0x1013
00000FBF  81E100F0FFFF      and ecx,0xfffff000
00000FC5  F7C2FF0F0000      test edx,0xfff
00000FCB  7404              jz 0xfd1
00000FCD  85C9              test ecx,ecx
00000FCF  7559              jnz 0x102a
00000FD1  B85B000000        mov eax,0x5b
00000FD6  89D3              mov ebx,edx
00000FD8  CD80              int 0x80
00000FDA  3D01F0FFFF        cmp eax,0xfffff001
00000FDF  7304              jnc 0xfe5
00000FE1  31C0              xor eax,eax
00000FE3  EB02              jmp short 0xfe7
00000FE5  F7D8              neg eax
00000FE7  6685C0            test ax,ax
00000FEA  7505              jnz 0xff1
00000FEC  83C408            add esp,byte +0x8
00000FEF  5B                pop ebx
00000FF0  C3                ret
00000FF1  0FB7C0            movzx eax,ax
00000FF4  83F80C            cmp eax,byte +0xc
00000FF7  7403              jz 0xffc
00000FF9  83F816            cmp eax,byte +0x16
00000FFC  C744240400000000  mov dword [esp+0x4],0x0
00001004  B9E1000000        mov ecx,0xe1
00001009  BA18000000        mov edx,0x18
0000100E  E8FCFFFFFF        call 0x100f
00001013  C744240400000000  mov dword [esp+0x4],0x0
0000101B  B925000000        mov ecx,0x25
00001020  BA10000000        mov edx,0x10
00001025  E8FCFFFFFF        call 0x1026
0000102A  C744240400000000  mov dword [esp+0x4],0x0
00001032  B936000000        mov ecx,0x36
00001037  BA13000000        mov edx,0x13
0000103C  E8FCFFFFFF        call 0x103d
00001041  90                nop
00001042  90                nop
00001043  90                nop
00001044  90                nop
00001045  90                nop
00001046  90                nop
00001047  90                nop
00001048  90                nop
00001049  90                nop
0000104A  90                nop
0000104B  90                nop
0000104C  90                nop
0000104D  90                nop
0000104E  90                nop
0000104F  90                nop
00001050  55                push ebp
00001051  53                push ebx
00001052  57                push edi
00001053  56                push esi
00001054  83EC3C            sub esp,byte +0x3c
00001057  89542420          mov [esp+0x20],edx
0000105B  89C8              mov eax,ecx
0000105D  A803              test al,0x3
0000105F  0F855F020000      jnz near 0x12c4
00001065  0FB64C2450        movzx ecx,byte [esp+0x50]
0000106A  80F920            cmp cl,0x20
0000106D  0F8368020000      jnc near 0x12db
00001073  BA01000000        mov edx,0x1
00001078  D3E2              shl edx,cl
0000107A  89542428          mov [esp+0x28],edx
0000107E  8944241C          mov [esp+0x1c],eax
00001082  8B4008            mov eax,[eax+0x8]
00001085  85C0              test eax,eax
00001087  7526              jnz 0x10af
00001089  8B442420          mov eax,[esp+0x20]
0000108D  03442428          add eax,[esp+0x28]
00001091  0F823F010000      jc near 0x11d6
00001097  890424            mov [esp],eax
0000109A  31DB              xor ebx,ebx
0000109C  8B4C241C          mov ecx,[esp+0x1c]
000010A0  31D2              xor edx,edx
000010A2  E859020000        call 0x1300
000010A7  85C0              test eax,eax
000010A9  0F84F4010000      jz near 0x12a3
000010AF  8B4804            mov ecx,[eax+0x4]
000010B2  83F908            cmp ecx,byte +0x8
000010B5  8B7C241C          mov edi,[esp+0x1c]
000010B9  0F82EE010000      jc near 0x12ad
000010BF  89CD              mov ebp,ecx
000010C1  8D4804            lea ecx,[eax+0x4]
000010C4  894C2438          mov [esp+0x38],ecx
000010C8  8D7008            lea esi,[eax+0x8]
000010CB  8B542428          mov edx,[esp+0x28]
000010CF  8D4AFF            lea ecx,[edx-0x1]
000010D2  894C2434          mov [esp+0x34],ecx
000010D6  89D1              mov ecx,edx
000010D8  F7D9              neg ecx
000010DA  894C2430          mov [esp+0x30],ecx
000010DE  03542420          add edx,[esp+0x20]
000010E2  89542428          mov [esp+0x28],edx
000010E6  0F8326010000      jnc near 0x1212
000010EC  89442424          mov [esp+0x24],eax
000010F0  8B5F0C            mov ebx,[edi+0xc]
000010F3  89F1              mov ecx,esi
000010F5  01D9              add ecx,ebx
000010F7  0F82D9000000      jc near 0x11d6
000010FD  89CA              mov edx,ecx
000010FF  03542434          add edx,[esp+0x34]
00001103  0F82CD000000      jc near 0x11d6
00001109  23542430          and edx,[esp+0x30]
0000110D  29CA              sub edx,ecx
0000110F  0F82C1000000      jc near 0x11d6
00001115  8974242C          mov [esp+0x2c],esi
00001119  01D3              add ebx,edx
0000111B  0F82B5000000      jc near 0x11d6
00001121  89E8              mov eax,ebp
00001123  89DD              mov ebp,ebx
00001125  036C2420          add ebp,[esp+0x20]
00001129  0F82A7000000      jc near 0x11d6
0000112F  8D48F8            lea ecx,[eax-0x8]
00001132  39CD              cmp ebp,ecx
00001134  0F865E010000      jna near 0x1298
0000113A  83C508            add ebp,byte +0x8
0000113D  0F8293000000      jc near 0x11d6
00001143  8B7C241C          mov edi,[esp+0x1c]
00001147  8B0F              mov ecx,[edi]
00001149  8B5F04            mov ebx,[edi+0x4]
0000114C  8B74244C          mov esi,[esp+0x4c]
00001150  8974240C          mov [esp+0xc],esi
00001154  896C2408          mov [esp+0x8],ebp
00001158  890424            mov [esp],eax
0000115B  C744240402000000  mov dword [esp+0x4],0x2
00001163  8B542424          mov edx,[esp+0x24]
00001167  FF5304            call [ebx+0x4]
0000116A  A801              test al,0x1
0000116C  7468              jz 0x11d6
0000116E  89EA              mov edx,ebp
00001170  8B442438          mov eax,[esp+0x38]
00001174  8910              mov [eax],edx
00001176  8B5F0C            mov ebx,[edi+0xc]
00001179  8B44242C          mov eax,[esp+0x2c]
0000117D  01D8              add eax,ebx
0000117F  7255              jc 0x11d6
00001181  89C1              mov ecx,eax
00001183  034C2434          add ecx,[esp+0x34]
00001187  724D              jc 0x11d6
00001189  234C2430          and ecx,[esp+0x30]
0000118D  29C1              sub ecx,eax
0000118F  7245              jc 0x11d6
00001191  01CB              add ebx,ecx
00001193  7241              jc 0x11d6
00001195  89DD              mov ebp,ebx
00001197  036C2420          add ebp,[esp+0x20]
0000119B  7239              jc 0x11d6
0000119D  8D42F8            lea eax,[edx-0x8]
000011A0  39C5              cmp ebp,eax
000011A2  0F86F0000000      jna near 0x1298
000011A8  83C508            add ebp,byte +0x8
000011AB  7229              jc 0x11d6
000011AD  8B7C241C          mov edi,[esp+0x1c]
000011B1  8B0F              mov ecx,[edi]
000011B3  8B4704            mov eax,[edi+0x4]
000011B6  8974240C          mov [esp+0xc],esi
000011BA  896C2408          mov [esp+0x8],ebp
000011BE  891424            mov [esp],edx
000011C1  C744240402000000  mov dword [esp+0x4],0x2
000011C9  8B542424          mov edx,[esp+0x24]
000011CD  FF5004            call [eax+0x4]
000011D0  89EA              mov edx,ebp
000011D2  A801              test al,0x1
000011D4  759A              jnz 0x1170
000011D6  C744240400000000  mov dword [esp+0x4],0x0
000011DE  B925000000        mov ecx,0x25
000011E3  BA10000000        mov edx,0x10
000011E8  E8FCFFFFFF        call 0x11e9
000011ED  90                nop
000011EE  90                nop
000011EF  90                nop
000011F0  8B442438          mov eax,[esp+0x38]
000011F4  8928              mov [eax],ebp
000011F6  8B442424          mov eax,[esp+0x24]
000011FA  8D4804            lea ecx,[eax+0x4]
000011FD  894C2438          mov [esp+0x38],ecx
00001201  8B4804            mov ecx,[eax+0x4]
00001204  8D7008            lea esi,[eax+0x8]
00001207  89CD              mov ebp,ecx
00001209  83F907            cmp ecx,byte +0x7
0000120C  0F869B000000      jna near 0x12ad
00001212  89442424          mov [esp+0x24],eax
00001216  8B5F0C            mov ebx,[edi+0xc]
00001219  89F1              mov ecx,esi
0000121B  01D9              add ecx,ebx
0000121D  72B7              jc 0x11d6
0000121F  89CA              mov edx,ecx
00001221  03542434          add edx,[esp+0x34]
00001225  72AF              jc 0x11d6
00001227  23542430          and edx,[esp+0x30]
0000122B  29CA              sub edx,ecx
0000122D  72A7              jc 0x11d6
0000122F  8974242C          mov [esp+0x2c],esi
00001233  01D3              add ebx,edx
00001235  729F              jc 0x11d6
00001237  89E8              mov eax,ebp
00001239  89DD              mov ebp,ebx
0000123B  036C2420          add ebp,[esp+0x20]
0000123F  7295              jc 0x11d6
00001241  8D70F8            lea esi,[eax-0x8]
00001244  39F5              cmp ebp,esi
00001246  7650              jna 0x1298
00001248  83C508            add ebp,byte +0x8
0000124B  7289              jc 0x11d6
0000124D  8B7C241C          mov edi,[esp+0x1c]
00001251  8B0F              mov ecx,[edi]
00001253  8B5F04            mov ebx,[edi+0x4]
00001256  8B54244C          mov edx,[esp+0x4c]
0000125A  8954240C          mov [esp+0xc],edx
0000125E  896C2408          mov [esp+0x8],ebp
00001262  890424            mov [esp],eax
00001265  C744240402000000  mov dword [esp+0x4],0x2
0000126D  8B542424          mov edx,[esp+0x24]
00001271  FF5304            call [ebx+0x4]
00001274  A801              test al,0x1
00001276  0F8574FFFFFF      jnz near 0x11f0
0000127C  8B442428          mov eax,[esp+0x28]
00001280  890424            mov [esp],eax
00001283  89F9              mov ecx,edi
00001285  89F2              mov edx,esi
00001287  E874000000        call 0x1300
0000128C  85C0              test eax,eax
0000128E  0F8566FFFFFF      jnz near 0x11fa
00001294  31DB              xor ebx,ebx
00001296  EB0B              jmp short 0x12a3
00001298  035C242C          add ebx,[esp+0x2c]
0000129C  8B44241C          mov eax,[esp+0x1c]
000012A0  89680C            mov [eax+0xc],ebp
000012A3  89D8              mov eax,ebx
000012A5  83C43C            add esp,byte +0x3c
000012A8  5E                pop esi
000012A9  5F                pop edi
000012AA  5B                pop ebx
000012AB  5D                pop ebp
000012AC  C3                ret
000012AD  C744240400000000  mov dword [esp+0x4],0x0
000012B5  B900000000        mov ecx,0x0
000012BA  BA24000000        mov edx,0x24
000012BF  E8FCFFFFFF        call 0x12c0
000012C4  C744240400000000  mov dword [esp+0x4],0x0
000012CC  B936000000        mov ecx,0x36
000012D1  BA13000000        mov edx,0x13
000012D6  E8FCFFFFFF        call 0x12d7
000012DB  C744240400000000  mov dword [esp+0x4],0x0
000012E3  B94A000000        mov ecx,0x4a
000012E8  BA1B000000        mov edx,0x1b
000012ED  E8FCFFFFFF        call 0x12ee
000012F2  90                nop
000012F3  90                nop
000012F4  90                nop
000012F5  90                nop
000012F6  90                nop
000012F7  90                nop
000012F8  90                nop
000012F9  90                nop
000012FA  90                nop
000012FB  90                nop
000012FC  90                nop
000012FD  90                nop
000012FE  90                nop
000012FF  90                nop
00001300  57                push edi
00001301  56                push esi
00001302  83EC14            sub esp,byte +0x14
00001305  8B442420          mov eax,[esp+0x20]
00001309  83C018            add eax,byte +0x18
0000130C  724C              jc 0x135a
0000130E  01C2              add edx,eax
00001310  7248              jc 0x135a
00001312  89D7              mov edi,edx
00001314  D1EF              shr edi,1
00001316  01D7              add edi,edx
00001318  7240              jc 0x135a
0000131A  89CE              mov esi,ecx
0000131C  8B09              mov ecx,[ecx]
0000131E  8B4604            mov eax,[esi+0x4]
00001321  8B54241C          mov edx,[esp+0x1c]
00001325  89542404          mov [esp+0x4],edx
00001329  C7042402000000    mov dword [esp],0x2
00001330  89FA              mov edx,edi
00001332  FF10              call [eax]
00001334  85C0              test eax,eax
00001336  741C              jz 0x1354
00001338  A803              test al,0x3
0000133A  7535              jnz 0x1371
0000133C  897804            mov [eax+0x4],edi
0000133F  C70000000000      mov dword [eax],0x0
00001345  8B4E08            mov ecx,[esi+0x8]
00001348  8908              mov [eax],ecx
0000134A  894608            mov [esi+0x8],eax
0000134D  C7460C00000000    mov dword [esi+0xc],0x0
00001354  83C414            add esp,byte +0x14
00001357  5E                pop esi
00001358  5F                pop edi
00001359  C3                ret
0000135A  C744240400000000  mov dword [esp+0x4],0x0
00001362  B925000000        mov ecx,0x25
00001367  BA10000000        mov edx,0x10
0000136C  E8FCFFFFFF        call 0x136d
00001371  C744240400000000  mov dword [esp+0x4],0x0
00001379  B936000000        mov ecx,0x36
0000137E  BA13000000        mov edx,0x13
00001383  E8FCFFFFFF        call 0x1384
00001388  90                nop
00001389  90                nop
0000138A  90                nop
0000138B  90                nop
0000138C  90                nop
0000138D  90                nop
0000138E  90                nop
0000138F  90                nop
00001390  55                push ebp
00001391  53                push ebx
00001392  57                push edi
00001393  56                push esi
00001394  83EC0C            sub esp,byte +0xc
00001397  F6C103            test cl,0x3
0000139A  7575              jnz 0x1411
0000139C  8B6908            mov ebp,[ecx+0x8]
0000139F  85ED              test ebp,ebp
000013A1  7437              jz 0x13da
000013A3  8B7504            mov esi,[ebp+0x4]
000013A6  83FE07            cmp esi,byte +0x7
000013A9  767D              jna 0x1428
000013AB  83C508            add ebp,byte +0x8
000013AE  8B410C            mov eax,[ecx+0xc]
000013B1  01C5              add ebp,eax
000013B3  7245              jc 0x13fa
000013B5  8B5C2420          mov ebx,[esp+0x20]
000013B9  01DA              add edx,ebx
000013BB  723D              jc 0x13fa
000013BD  8B7C2428          mov edi,[esp+0x28]
000013C1  39D5              cmp ebp,edx
000013C3  7519              jnz 0x13de
000013C5  89DA              mov edx,ebx
000013C7  29FA              sub edx,edi
000013C9  731A              jnc 0x13e5
000013CB  83C6F8            add esi,byte -0x8
000013CE  29C6              sub esi,eax
000013D0  7228              jc 0x13fa
000013D2  29DF              sub edi,ebx
000013D4  7224              jc 0x13fa
000013D6  39FE              cmp esi,edi
000013D8  731C              jnc 0x13f6
000013DA  31C0              xor eax,eax
000013DC  EB10              jmp short 0x13ee
000013DE  39FB              cmp ebx,edi
000013E0  0F93C0            setnc al
000013E3  EB09              jmp short 0x13ee
000013E5  29D0              sub eax,edx
000013E7  7211              jc 0x13fa
000013E9  89410C            mov [ecx+0xc],eax
000013EC  B001              mov al,0x1
000013EE  83C40C            add esp,byte +0xc
000013F1  5E                pop esi
000013F2  5F                pop edi
000013F3  5B                pop ebx
000013F4  5D                pop ebp
000013F5  C3                ret
000013F6  01F8              add eax,edi
000013F8  73EF              jnc 0x13e9
000013FA  C744240400000000  mov dword [esp+0x4],0x0
00001402  B925000000        mov ecx,0x25
00001407  BA10000000        mov edx,0x10
0000140C  E8FCFFFFFF        call 0x140d
00001411  C744240400000000  mov dword [esp+0x4],0x0
00001419  B936000000        mov ecx,0x36
0000141E  BA13000000        mov edx,0x13
00001423  E8FCFFFFFF        call 0x1424
00001428  C744240400000000  mov dword [esp+0x4],0x0
00001430  B900000000        mov ecx,0x0
00001435  BA24000000        mov edx,0x24
0000143A  E8FCFFFFFF        call 0x143b
0000143F  90                nop
00001440  57                push edi
00001441  56                push esi
00001442  83EC14            sub esp,byte +0x14
00001445  F6C103            test cl,0x3
00001448  7547              jnz 0x1491
0000144A  8B4108            mov eax,[ecx+0x8]
0000144D  85C0              test eax,eax
0000144F  7423              jz 0x1474
00001451  83780407          cmp dword [eax+0x4],byte +0x7
00001455  7651              jna 0x14a8
00001457  83C008            add eax,byte +0x8
0000145A  8B710C            mov esi,[ecx+0xc]
0000145D  01F0              add eax,esi
0000145F  7219              jc 0x147a
00001461  8B7C2420          mov edi,[esp+0x20]
00001465  01FA              add edx,edi
00001467  7211              jc 0x147a
00001469  39D0              cmp eax,edx
0000146B  7507              jnz 0x1474
0000146D  29FE              sub esi,edi
0000146F  7209              jc 0x147a
00001471  89710C            mov [ecx+0xc],esi
00001474  83C414            add esp,byte +0x14
00001477  5E                pop esi
00001478  5F                pop edi
00001479  C3                ret
0000147A  C744240400000000  mov dword [esp+0x4],0x0
00001482  B925000000        mov ecx,0x25
00001487  BA10000000        mov edx,0x10
0000148C  E8FCFFFFFF        call 0x148d
00001491  C744240400000000  mov dword [esp+0x4],0x0
00001499  B936000000        mov ecx,0x36
0000149E  BA13000000        mov edx,0x13
000014A3  E8FCFFFFFF        call 0x14a4
000014A8  C744240400000000  mov dword [esp+0x4],0x0
000014B0  B900000000        mov ecx,0x0
000014B5  BA24000000        mov edx,0x24
000014BA  E8FCFFFFFF        call 0x14bb
